target datalayout = "e-m:e-p270:32:32-p271:32:32-p272:64:64-i64:64-i128:128-f80:128-n8:16:32:64-S128"
target triple = "x86_64-pc-linux-gnu"

%struct.UConverterSelector = type { ptr, ptr, i32, ptr, i32, i32, ptr, i8, i8 }
%struct.UTrie2 = type { ptr, ptr, ptr, i32, i32, i16, i16, i32, i32, i32, i32, ptr, i32, i8, i8, i16, ptr }

@.str = private unnamed_addr constant [17 x i8] c" 000000000000\1000\00", align 1

; Function Attrs: mustprogress nounwind uwtable
define internal noundef signext i8 @_ZL14intersectMasksPjPKji(ptr noundef %0, ptr noundef %1, i32 noundef %2) #4 {
  %4 = alloca ptr, align 8
  %5 = alloca ptr, align 8
  %6 = alloca i32, align 4
  %7 = alloca i32, align 4
  %8 = alloca i32, align 4
  store ptr %0, ptr %4, align 8, !tbaa !65
  store ptr %1, ptr %5, align 8, !tbaa !65
  store i32 %2, ptr %6, align 4, !tbaa !9
  call void @llvm.lifetime.start.p0(i64 4, ptr %7) #11
  call void @llvm.lifetime.start.p0(i64 4, ptr %8) #11
  store i32 0, ptr %8, align 4, !tbaa !9
  store i32 0, ptr %7, align 4, !tbaa !9
  br label %9

9:                                                ; preds = %27, %3
  %10 = load i32, ptr %7, align 4, !tbaa !9
  %11 = load i32, ptr %6, align 4, !tbaa !9
  %12 = icmp slt i32 %10, %11
  br i1 %12, label %13, label %30

13:                                               ; preds = %9
  %14 = load ptr, ptr %5, align 8, !tbaa !65
  %15 = load i32, ptr %7, align 4, !tbaa !9
  %16 = sext i32 %15 to i64
  %17 = getelementptr inbounds i32, ptr %14, i64 %16
  %18 = load i32, ptr %17, align 4, !tbaa !9
  %19 = load ptr, ptr %4, align 8, !tbaa !65
  %20 = load i32, ptr %7, align 4, !tbaa !9
  %21 = sext i32 %20 to i64
  %22 = getelementptr inbounds i32, ptr %19, i64 %21
  %23 = load i32, ptr %22, align 4, !tbaa !9
  %24 = and i32 %23, %18
  store i32 %24, ptr %22, align 4, !tbaa !9
  %25 = load i32, ptr %8, align 4, !tbaa !9
  %26 = or i32 %25, %24
  store i32 %26, ptr %8, align 4, !tbaa !9
  br label %27

27:                                               ; preds = %13
  %28 = load i32, ptr %7, align 4, !tbaa !9
  %29 = add nsw i32 %28, 1
  store i32 %29, ptr %7, align 4, !tbaa !9
  br label %9, !llvm.loop !83

30:                                               ; preds = %9
  %31 = load i32, ptr %8, align 4, !tbaa !9
  %32 = icmp eq i32 %31, 0
  %33 = zext i1 %32 to i8
  call void @llvm.lifetime.end.p0(i64 4, ptr %8) #11
  call void @llvm.lifetime.end.p0(i64 4, ptr %7) #11
  ret i8 %33
}

; Function Attrs: inlinehint mustprogress nounwind uwtable
define internal noundef signext i8 @_ZL9U_FAILURE10UErrorCode(i32 noundef %0) #1 {
  %2 = alloca i32, align 4
  store i32 %0, ptr %2, align 4, !tbaa !16
  %3 = load i32, ptr %2, align 4, !tbaa !16
  %4 = icmp sgt i32 %3, 0
  %5 = zext i1 %4 to i8
  ret i8 %5
}

; Function Attrs: mustprogress uwtable
define ptr @ucnvsel_selectForUTF8_77(ptr noundef %0, ptr noundef %1, i32 noundef %2, ptr noundef %3) #0 {
  %5 = alloca ptr, align 8
  %6 = alloca ptr, align 8
  %7 = alloca ptr, align 8
  %8 = alloca i32, align 4
  %9 = alloca ptr, align 8
  %10 = alloca i32, align 4
  %11 = alloca ptr, align 8
  %12 = alloca i32, align 4
  %13 = alloca ptr, align 8
  %14 = alloca i16, align 2
  %15 = alloca i8, align 1
  %16 = alloca i8, align 1
  %17 = alloca i8, align 1
  %18 = alloca i32, align 4
  store ptr %0, ptr %6, align 8, !tbaa !36
  store ptr %1, ptr %7, align 8, !tbaa !23
  store i32 %2, ptr %8, align 4, !tbaa !9
  store ptr %3, ptr %9, align 8, !tbaa !15
  %19 = load ptr, ptr %9, align 8, !tbaa !15
  %20 = load i32, ptr %19, align 4, !tbaa !16
  %21 = call noundef signext i8 @_ZL9U_FAILURE10UErrorCode(i32 noundef %20)
  %22 = icmp ne i8 %21, 0
  br i1 %22, label %23, label %24

23:                                               ; preds = %4
  store ptr null, ptr %5, align 8
  br label %264

24:                                               ; preds = %4
  %25 = load ptr, ptr %6, align 8, !tbaa !36
  %26 = icmp eq ptr %25, null
  br i1 %26, label %33, label %27

27:                                               ; preds = %24
  %28 = load ptr, ptr %7, align 8, !tbaa !23
  %29 = icmp eq ptr %28, null
  br i1 %29, label %30, label %35

30:                                               ; preds = %27
  %31 = load i32, ptr %8, align 4, !tbaa !9
  %32 = icmp ne i32 %31, 0
  br i1 %32, label %33, label %35

33:                                               ; preds = %30, %24
  %34 = load ptr, ptr %9, align 8, !tbaa !15
  store i32 1, ptr %34, align 4, !tbaa !16
  store ptr null, ptr %5, align 8
  br label %264

35:                                               ; preds = %30, %27
  call void @llvm.lifetime.start.p0(i64 4, ptr %10) #11
  %36 = load ptr, ptr %6, align 8, !tbaa !36
  %37 = getelementptr inbounds nuw %struct.UConverterSelector, ptr %36, i32 0, i32 4
  %38 = load i32, ptr %37, align 8, !tbaa !31
  %39 = add nsw i32 %38, 31
  %40 = sdiv i32 %39, 32
  store i32 %40, ptr %10, align 4, !tbaa !9
  call void @llvm.lifetime.start.p0(i64 8, ptr %11) #11
  %41 = load i32, ptr %10, align 4, !tbaa !9
  %42 = mul nsw i32 %41, 4
  %43 = sext i32 %42 to i64
  %44 = call noalias ptr @uprv_malloc_77(i64 noundef %43) #12
  store ptr %44, ptr %11, align 8, !tbaa !65
  %45 = load ptr, ptr %11, align 8, !tbaa !65
  %46 = icmp eq ptr %45, null
  br i1 %46, label %47, label %49

47:                                               ; preds = %35
  %48 = load ptr, ptr %9, align 8, !tbaa !15
  store i32 7, ptr %48, align 4, !tbaa !16
  store ptr null, ptr %5, align 8
  store i32 1, ptr %12, align 4
  br label %263

49:                                               ; preds = %35
  %50 = load ptr, ptr %11, align 8, !tbaa !65
  %51 = load i32, ptr %10, align 4, !tbaa !9
  %52 = mul nsw i32 %51, 4
  %53 = sext i32 %52 to i64
  call void @llvm.memset.p0.i64(ptr align 4 %50, i8 -1, i64 %53, i1 false)
  %54 = load i32, ptr %8, align 4, !tbaa !9
  %55 = icmp slt i32 %54, 0
  br i1 %55, label %56, label %60

56:                                               ; preds = %49
  %57 = load ptr, ptr %7, align 8, !tbaa !23
  %58 = call i64 @strlen(ptr noundef %57) #13
  %59 = trunc i64 %58 to i32
  store i32 %59, ptr %8, align 4, !tbaa !9
  br label %60

60:                                               ; preds = %56, %49
  %61 = load ptr, ptr %7, align 8, !tbaa !23
  %62 = icmp ne ptr %61, null
  br i1 %62, label %63, label %258

63:                                               ; preds = %60
  call void @llvm.lifetime.start.p0(i64 8, ptr %13) #11
  %64 = load ptr, ptr %7, align 8, !tbaa !23
  %65 = load i32, ptr %8, align 4, !tbaa !9
  %66 = sext i32 %65 to i64
  %67 = getelementptr inbounds i8, ptr %64, i64 %66
  store ptr %67, ptr %13, align 8, !tbaa !23
  br label %68

68:                                               ; preds = %256, %63
  %69 = load ptr, ptr %7, align 8, !tbaa !23
  %70 = load ptr, ptr %13, align 8, !tbaa !23
  %71 = icmp ne ptr %69, %70
  br i1 %71, label %72, label %257

72:                                               ; preds = %68
  call void @llvm.lifetime.start.p0(i64 2, ptr %14) #11
  br label %73

73:                                               ; preds = %72
  call void @llvm.lifetime.start.p0(i64 1, ptr %15) #11
  %74 = load ptr, ptr %7, align 8, !tbaa !23
  %75 = getelementptr inbounds nuw i8, ptr %74, i32 1
  store ptr %75, ptr %7, align 8, !tbaa !23
  %76 = load i8, ptr %74, align 1, !tbaa !28
  store i8 %76, ptr %15, align 1, !tbaa !28
  %77 = load i8, ptr %15, align 1, !tbaa !28
  %78 = zext i8 %77 to i32
  %79 = and i32 %78, 128
  %80 = icmp eq i32 %79, 0
  br i1 %80, label %81, label %91

81:                                               ; preds = %73
  %82 = load ptr, ptr %6, align 8, !tbaa !36
  %83 = getelementptr inbounds nuw %struct.UConverterSelector, ptr %82, i32 0, i32 0
  %84 = load ptr, ptr %83, align 8, !tbaa !49
  %85 = getelementptr inbounds nuw %struct.UTrie2, ptr %84, i32 0, i32 1
  %86 = load ptr, ptr %85, align 8, !tbaa !93
  %87 = load i8, ptr %15, align 1, !tbaa !28
  %88 = zext i8 %87 to i64
  %89 = getelementptr inbounds nuw i16, ptr %86, i64 %88
  %90 = load i16, ptr %89, align 2, !tbaa !79
  store i16 %90, ptr %14, align 2, !tbaa !79
  br label %238

91:                                               ; preds = %73
  call void @llvm.lifetime.start.p0(i64 1, ptr %16) #11
  call void @llvm.lifetime.start.p0(i64 1, ptr %17) #11
  %92 = load i8, ptr %15, align 1, !tbaa !28
  %93 = zext i8 %92 to i32
  %94 = icmp sle i32 224, %93
  br i1 %94, label %95, label %166

95:                                               ; preds = %91
  %96 = load i8, ptr %15, align 1, !tbaa !28
  %97 = zext i8 %96 to i32
  %98 = icmp slt i32 %97, 240
  br i1 %98, label %99, label %166

99:                                               ; preds = %95
  %100 = load ptr, ptr %7, align 8, !tbaa !23
  %101 = getelementptr inbounds i8, ptr %100, i64 1
  %102 = load ptr, ptr %13, align 8, !tbaa !23
  %103 = icmp ult ptr %101, %102
  br i1 %103, label %104, label %166

104:                                              ; preds = %99
  %105 = load i8, ptr %15, align 1, !tbaa !28
  %106 = zext i8 %105 to i32
  %107 = and i32 %106, 15
  %108 = sext i32 %107 to i64
  %109 = getelementptr inbounds [17 x i8], ptr @.str, i64 0, i64 %108
  %110 = load i8, ptr %109, align 1, !tbaa !28
  %111 = sext i8 %110 to i32
  %112 = load ptr, ptr %7, align 8, !tbaa !23
  %113 = load i8, ptr %112, align 1, !tbaa !28
  store i8 %113, ptr %16, align 1, !tbaa !28
  %114 = zext i8 %113 to i32
  %115 = ashr i32 %114, 5
  %116 = shl i32 1, %115
  %117 = and i32 %111, %116
  %118 = icmp ne i32 %117, 0
  br i1 %118, label %119, label %166

119:                                              ; preds = %104
  %120 = load ptr, ptr %7, align 8, !tbaa !23
  %121 = getelementptr inbounds i8, ptr %120, i64 1
  %122 = load i8, ptr %121, align 1, !tbaa !28
  %123 = sext i8 %122 to i32
  %124 = sub nsw i32 %123, 128
  %125 = trunc i32 %124 to i8
  store i8 %125, ptr %17, align 1, !tbaa !28
  %126 = zext i8 %125 to i32
  %127 = icmp sle i32 %126, 63
  br i1 %127, label %128, label %166

128:                                              ; preds = %119
  %129 = load ptr, ptr %7, align 8, !tbaa !23
  %130 = getelementptr inbounds i8, ptr %129, i64 2
  store ptr %130, ptr %7, align 8, !tbaa !23
  %131 = load ptr, ptr %6, align 8, !tbaa !36
  %132 = getelementptr inbounds nuw %struct.UConverterSelector, ptr %131, i32 0, i32 0
  %133 = load ptr, ptr %132, align 8, !tbaa !49
  %134 = getelementptr inbounds nuw %struct.UTrie2, ptr %133, i32 0, i32 0
  %135 = load ptr, ptr %134, align 8, !tbaa !75
  %136 = load ptr, ptr %6, align 8, !tbaa !36
  %137 = getelementptr inbounds nuw %struct.UConverterSelector, ptr %136, i32 0, i32 0
  %138 = load ptr, ptr %137, align 8, !tbaa !49
  %139 = getelementptr inbounds nuw %struct.UTrie2, ptr %138, i32 0, i32 0
  %140 = load ptr, ptr %139, align 8, !tbaa !75
  %141 = load i8, ptr %15, align 1, !tbaa !28
  %142 = zext i8 %141 to i32
  %143 = sub nsw i32 %142, 224
  %144 = shl i32 %143, 7
  %145 = load i8, ptr %16, align 1, !tbaa !28
  %146 = zext i8 %145 to i32
  %147 = and i32 %146, 63
  %148 = shl i32 %147, 1
  %149 = add nsw i32 %144, %148
  %150 = load i8, ptr %17, align 1, !tbaa !28
  %151 = zext i8 %150 to i32
  %152 = ashr i32 %151, 5
  %153 = add nsw i32 %149, %152
  %154 = sext i32 %153 to i64
  %155 = getelementptr inbounds i16, ptr %140, i64 %154
  %156 = load i16, ptr %155, align 2, !tbaa !79
  %157 = zext i16 %156 to i32
  %158 = shl i32 %157, 2
  %159 = load i8, ptr %17, align 1, !tbaa !28
  %160 = zext i8 %159 to i32
  %161 = and i32 %160, 31
  %162 = add nsw i32 %158, %161
  %163 = sext i32 %162 to i64
  %164 = getelementptr inbounds i16, ptr %135, i64 %163
  %165 = load i16, ptr %164, align 2, !tbaa !79
  store i16 %165, ptr %14, align 2, !tbaa !79
  br label %237

166:                                              ; preds = %119, %104, %99, %95, %91
  %167 = load i8, ptr %15, align 1, !tbaa !28
  %168 = zext i8 %167 to i32
  %169 = icmp slt i32 %168, 224
  br i1 %169, label %170, label %212

170:                                              ; preds = %166
  %171 = load i8, ptr %15, align 1, !tbaa !28
  %172 = zext i8 %171 to i32
  %173 = icmp sge i32 %172, 194
  br i1 %173, label %174, label %212

174:                                              ; preds = %170
  %175 = load ptr, ptr %7, align 8, !tbaa !23
  %176 = load ptr, ptr %13, align 8, !tbaa !23
  %177 = icmp ult ptr %175, %176
  br i1 %177, label %178, label %212

178:                                              ; preds = %174
  %179 = load ptr, ptr %7, align 8, !tbaa !23
  %180 = load i8, ptr %179, align 1, !tbaa !28
  %181 = sext i8 %180 to i32
  %182 = sub nsw i32 %181, 128
  %183 = trunc i32 %182 to i8
  store i8 %183, ptr %16, align 1, !tbaa !28
  %184 = zext i8 %183 to i32
  %185 = icmp sle i32 %184, 63
  br i1 %185, label %186, label %212

186:                                              ; preds = %178
  %187 = load ptr, ptr %7, align 8, !tbaa !23
  %188 = getelementptr inbounds nuw i8, ptr %187, i32 1
  store ptr %188, ptr %7, align 8, !tbaa !23
  %189 = load ptr, ptr %6, align 8, !tbaa !36
  %190 = getelementptr inbounds nuw %struct.UConverterSelector, ptr %189, i32 0, i32 0
  %191 = load ptr, ptr %190, align 8, !tbaa !49
  %192 = getelementptr inbounds nuw %struct.UTrie2, ptr %191, i32 0, i32 0
  %193 = load ptr, ptr %192, align 8, !tbaa !75
  %194 = load ptr, ptr %6, align 8, !tbaa !36
  %195 = getelementptr inbounds nuw %struct.UConverterSelector, ptr %194, i32 0, i32 0
  %196 = load ptr, ptr %195, align 8, !tbaa !49
  %197 = getelementptr inbounds nuw %struct.UTrie2, ptr %196, i32 0, i32 0
  %198 = load ptr, ptr %197, align 8, !tbaa !75
  %199 = load i8, ptr %15, align 1, !tbaa !28
  %200 = zext i8 %199 to i32
  %201 = add nsw i32 1888, %200
  %202 = sext i32 %201 to i64
  %203 = getelementptr inbounds i16, ptr %198, i64 %202
  %204 = load i16, ptr %203, align 2, !tbaa !79
  %205 = zext i16 %204 to i32
  %206 = load i8, ptr %16, align 1, !tbaa !28
  %207 = zext i8 %206 to i32
  %208 = add nsw i32 %205, %207
  %209 = sext i32 %208 to i64
  %210 = getelementptr inbounds i16, ptr %193, i64 %209
  %211 = load i16, ptr %210, align 2, !tbaa !79
  store i16 %211, ptr %14, align 2, !tbaa !79
  br label %236

212:                                              ; preds = %178, %174, %170, %166
  call void @llvm.lifetime.start.p0(i64 4, ptr %18) #11
  %213 = load ptr, ptr %6, align 8, !tbaa !36
  %214 = getelementptr inbounds nuw %struct.UConverterSelector, ptr %213, i32 0, i32 0
  %215 = load ptr, ptr %214, align 8, !tbaa !49
  %216 = load i8, ptr %15, align 1, !tbaa !28
  %217 = zext i8 %216 to i32
  %218 = load ptr, ptr %7, align 8, !tbaa !23
  %219 = load ptr, ptr %13, align 8, !tbaa !23
  %220 = call i32 @utrie2_internalU8NextIndex_77(ptr noundef %215, i32 noundef %217, ptr noundef %218, ptr noundef %219)
  store i32 %220, ptr %18, align 4, !tbaa !9
  %221 = load i32, ptr %18, align 4, !tbaa !9
  %222 = and i32 %221, 7
  %223 = load ptr, ptr %7, align 8, !tbaa !23
  %224 = sext i32 %222 to i64
  %225 = getelementptr inbounds i8, ptr %223, i64 %224
  store ptr %225, ptr %7, align 8, !tbaa !23
  %226 = load ptr, ptr %6, align 8, !tbaa !36
  %227 = getelementptr inbounds nuw %struct.UConverterSelector, ptr %226, i32 0, i32 0
  %228 = load ptr, ptr %227, align 8, !tbaa !49
  %229 = getelementptr inbounds nuw %struct.UTrie2, ptr %228, i32 0, i32 0
  %230 = load ptr, ptr %229, align 8, !tbaa !75
  %231 = load i32, ptr %18, align 4, !tbaa !9
  %232 = ashr i32 %231, 3
  %233 = sext i32 %232 to i64
  %234 = getelementptr inbounds i16, ptr %230, i64 %233
  %235 = load i16, ptr %234, align 2, !tbaa !79
  store i16 %235, ptr %14, align 2, !tbaa !79
  call void @llvm.lifetime.end.p0(i64 4, ptr %18) #11
  br label %236

236:                                              ; preds = %212, %186
  br label %237

237:                                              ; preds = %236, %128
  call void @llvm.lifetime.end.p0(i64 1, ptr %17) #11
  call void @llvm.lifetime.end.p0(i64 1, ptr %16) #11
  br label %238

238:                                              ; preds = %237, %81
  call void @llvm.lifetime.end.p0(i64 1, ptr %15) #11
  br label %239

239:                                              ; preds = %238
  br label %240

240:                                              ; preds = %239
  %241 = load ptr, ptr %11, align 8, !tbaa !65
  %242 = load ptr, ptr %6, align 8, !tbaa !36
  %243 = getelementptr inbounds nuw %struct.UConverterSelector, ptr %242, i32 0, i32 1
  %244 = load ptr, ptr %243, align 8, !tbaa !50
  %245 = load i16, ptr %14, align 2, !tbaa !79
  %246 = zext i16 %245 to i32
  %247 = sext i32 %246 to i64
  %248 = getelementptr inbounds i32, ptr %244, i64 %247
  %249 = load i32, ptr %10, align 4, !tbaa !9
  %250 = call noundef signext i8 @_ZL14intersectMasksPjPKji(ptr noundef %241, ptr noundef %248, i32 noundef %249)
  %251 = icmp ne i8 %250, 0
  br i1 %251, label %252, label %253

252:                                              ; preds = %240
  store i32 3, ptr %12, align 4
  br label %254

253:                                              ; preds = %240
  store i32 0, ptr %12, align 4
  br label %254

254:                                              ; preds = %253, %252
  call void @llvm.lifetime.end.p0(i64 2, ptr %14) #11
  %255 = load i32, ptr %12, align 4
  switch i32 %255, label %266 [
    i32 0, label %256
    i32 3, label %257
  ]

256:                                              ; preds = %254
  br label %68, !llvm.loop !94

257:                                              ; preds = %254, %68
  call void @llvm.lifetime.end.p0(i64 8, ptr %13) #11
  br label %258

258:                                              ; preds = %257, %60
  %259 = load ptr, ptr %6, align 8, !tbaa !36
  %260 = load ptr, ptr %11, align 8, !tbaa !65
  %261 = load ptr, ptr %9, align 8, !tbaa !15
  %262 = call noundef ptr @_ZL13selectForMaskPK18UConverterSelectorPjP10UErrorCode(ptr noundef %259, ptr noundef %260, ptr noundef %261)
  store ptr %262, ptr %5, align 8
  store i32 1, ptr %12, align 4
  br label %263

263:                                              ; preds = %258, %47
  call void @llvm.lifetime.end.p0(i64 8, ptr %11) #11
  call void @llvm.lifetime.end.p0(i64 4, ptr %10) #11
  br label %264

264:                                              ; preds = %263, %33, %23
  %265 = load ptr, ptr %5, align 8
  ret ptr %265

266:                                              ; preds = %254
  unreachable
}