; Function Attrs: mustprogress uwtable
define noundef ptr @ucnvsel_selectForUTF8_77(ptr noundef %0, ptr noundef %1, i32 noundef %2, ptr noundef captures(none) %3) local_unnamed_addr #0 {
  %5 = load i32, ptr %3, align 4, !tbaa !3
  %6 = icmp slt i32 %5, 1
  br i1 %6, label %7, label %126

7:                                                ; preds = %4
  %8 = icmp eq ptr %0, null
  br i1 %8, label %12, label %9

9:                                                ; preds = %7
  %10 = icmp eq ptr %1, null
  %11 = icmp ne i32 %2, 0
  %or.cond = and i1 %10, %11
  br i1 %or.cond, label %12, label %13

12:                                               ; preds = %9, %7
  store i32 1, ptr %3, align 4, !tbaa !3
  br label %126

13:                                               ; preds = %9
  %14 = getelementptr inbounds nuw i8, ptr %0, i64 32
  %15 = load i32, ptr %14, align 8, !tbaa !26
  %16 = add nsw i32 %15, 31
  %17 = sdiv i32 %16, 32
  %18 = shl nsw i32 %17, 2
  %19 = sext i32 %18 to i64
  %20 = tail call noalias ptr @uprv_malloc_77(i64 noundef %19) #16
  %21 = icmp eq ptr %20, null
  br i1 %21, label %22, label %23

22:                                               ; preds = %13
  store i32 7, ptr %3, align 4, !tbaa !3
  br label %126

23:                                               ; preds = %13
  tail call void @llvm.memset.p0.i64(ptr nonnull align 4 %20, i8 -1, i64 %19, i1 false)
  %24 = icmp slt i32 %2, 0
  br i1 %24, label %.thread, label %27

.thread:                                          ; preds = %23
  %25 = tail call i64 @strlen(ptr noundef nonnull dereferenceable(1) %1) #17
  %26 = trunc i64 %25 to i32
  br label %28

27:                                               ; preds = %23
  br i1 %10, label %_ZL14intersectMasksPjPKji.exit.thread, label %28

28:                                               ; preds = %.thread, %27
  %.07192 = phi i32 [ %26, %.thread ], [ %2, %27 ]
  %29 = sext i32 %.07192 to i64
  %30 = getelementptr inbounds i8, ptr %1, i64 %29
  %31 = getelementptr inbounds nuw i8, ptr %0, i64 8
  %32 = icmp sgt i32 %15, 0
  %wide.trip.count.i = zext nneg i32 %17 to i64
  br label %33

33:                                               ; preds = %_ZL14intersectMasksPjPKji.exit, %28
  %.069 = phi ptr [ %1, %28 ], [ %.170, %_ZL14intersectMasksPjPKji.exit ]
  %.not87 = icmp eq ptr %.069, %30
  br i1 %.not87, label %_ZL14intersectMasksPjPKji.exit.thread, label %34

34:                                               ; preds = %33
  %35 = getelementptr inbounds nuw i8, ptr %.069, i64 1
  %36 = load i8, ptr %.069, align 1, !tbaa !24
  %37 = zext i8 %36 to i32
  %38 = icmp sgt i8 %36, -1
  br i1 %38, label %39, label %45

39:                                               ; preds = %34
  %40 = load ptr, ptr %0, align 8, !tbaa !33
  %41 = getelementptr inbounds nuw i8, ptr %40, i64 8
  %42 = load ptr, ptr %41, align 8, !tbaa !73
  %43 = zext nneg i8 %36 to i64
  %44 = getelementptr inbounds nuw i16, ptr %42, i64 %43
  br label %115

45:                                               ; preds = %34
  %46 = and i8 %36, -16
  %or.cond4 = icmp eq i8 %46, -32
  br i1 %or.cond4, label %47, label %86

47:                                               ; preds = %45
  %48 = getelementptr inbounds nuw i8, ptr %.069, i64 2
  %49 = icmp ult ptr %48, %30
  br i1 %49, label %50, label %.thread93

50:                                               ; preds = %47
  %51 = and i32 %37, 15
  %52 = zext nneg i32 %51 to i64
  %53 = getelementptr inbounds nuw [17 x i8], ptr @.str, i64 0, i64 %52
  %54 = load i8, ptr %53, align 1, !tbaa !24
  %55 = zext i8 %54 to i32
  %56 = load i8, ptr %35, align 1, !tbaa !24
  %57 = zext i8 %56 to i32
  %58 = lshr i32 %57, 5
  %59 = shl nuw nsw i32 1, %58
  %60 = and i32 %59, %55
  %.not88 = icmp eq i32 %60, 0
  br i1 %.not88, label %.thread93, label %61

61:                                               ; preds = %50
  %62 = load i8, ptr %48, align 1, !tbaa !24
  %63 = xor i8 %62, -128
  %64 = icmp ult i8 %63, 64
  br i1 %64, label %65, label %.thread93

65:                                               ; preds = %61
  %66 = zext nneg i8 %63 to i32
  %67 = getelementptr inbounds nuw i8, ptr %.069, i64 3
  %68 = load ptr, ptr %0, align 8, !tbaa !33
  %69 = load ptr, ptr %68, align 8, !tbaa !54
  %70 = shl nuw nsw i32 %37, 7
  %71 = add nsw i32 %70, -28672
  %72 = shl nuw nsw i32 %57, 1
  %73 = and i32 %72, 126
  %74 = or disjoint i32 %73, %71
  %75 = lshr i32 %66, 5
  %76 = or disjoint i32 %75, %74
  %77 = zext nneg i32 %76 to i64
  %78 = getelementptr inbounds nuw i16, ptr %69, i64 %77
  %79 = load i16, ptr %78, align 2, !tbaa !58
  %80 = zext i16 %79 to i32
  %81 = shl nuw nsw i32 %80, 2
  %82 = and i32 %66, 31
  %83 = add nuw nsw i32 %81, %82
  %84 = zext nneg i32 %83 to i64
  %85 = getelementptr inbounds nuw i16, ptr %69, i64 %84
  br label %115

86:                                               ; preds = %45
  %87 = add nsw i8 %36, 62
  %or.cond7 = icmp ult i8 %87, 30
  %88 = icmp ult ptr %35, %30
  %or.cond90 = select i1 %or.cond7, i1 %88, i1 false
  br i1 %or.cond90, label %89, label %.thread93

89:                                               ; preds = %86
  %90 = load i8, ptr %35, align 1, !tbaa !24
  %91 = xor i8 %90, -128
  %92 = icmp ult i8 %91, 64
  br i1 %92, label %93, label %.thread93

93:                                               ; preds = %89
  %94 = zext nneg i8 %91 to i64
  %95 = getelementptr inbounds nuw i8, ptr %.069, i64 2
  %96 = load ptr, ptr %0, align 8, !tbaa !33
  %97 = load ptr, ptr %96, align 8, !tbaa !54
  %98 = zext i8 %36 to i64
  %99 = getelementptr inbounds nuw i16, ptr %97, i64 %98
  %100 = getelementptr inbounds nuw i8, ptr %99, i64 3776
  %101 = load i16, ptr %100, align 2, !tbaa !58
  %102 = zext i16 %101 to i64
  %103 = getelementptr inbounds nuw i16, ptr %97, i64 %102
  %104 = getelementptr inbounds nuw i16, ptr %103, i64 %94
  br label %115

.thread93:                                        ; preds = %47, %50, %61, %89, %86
  %105 = load ptr, ptr %0, align 8, !tbaa !33
  %106 = tail call i32 @utrie2_internalU8NextIndex_77(ptr noundef %105, i32 noundef %37, ptr noundef nonnull %35, ptr noundef nonnull %30)
  %107 = and i32 %106, 7
  %108 = zext nneg i32 %107 to i64
  %109 = getelementptr inbounds nuw i8, ptr %35, i64 %108
  %110 = load ptr, ptr %0, align 8, !tbaa !33
  %111 = load ptr, ptr %110, align 8, !tbaa !54
  %112 = ashr i32 %106, 3
  %113 = sext i32 %112 to i64
  %114 = getelementptr inbounds i16, ptr %111, i64 %113
  br label %115

115:                                              ; preds = %65, %.thread93, %93, %39
  %.072.in = phi ptr [ %44, %39 ], [ %85, %65 ], [ %104, %93 ], [ %114, %.thread93 ]
  %.170 = phi ptr [ %35, %39 ], [ %67, %65 ], [ %95, %93 ], [ %109, %.thread93 ]
  %.072 = load i16, ptr %.072.in, align 2, !tbaa !58
  %116 = load ptr, ptr %31, align 8, !tbaa !34
  %117 = zext i16 %.072 to i64
  %118 = getelementptr inbounds nuw i32, ptr %116, i64 %117
  br i1 %32, label %.lr.ph.i, label %_ZL14intersectMasksPjPKji.exit.thread

.lr.ph.i:                                         ; preds = %115, %.lr.ph.i
  %indvars.iv.i = phi i64 [ %indvars.iv.next.i, %.lr.ph.i ], [ 0, %115 ]
  %.010.i = phi i32 [ %124, %.lr.ph.i ], [ 0, %115 ]
  %119 = getelementptr inbounds nuw i32, ptr %118, i64 %indvars.iv.i
  %120 = load i32, ptr %119, align 4, !tbaa !29
  %121 = getelementptr inbounds nuw i32, ptr %20, i64 %indvars.iv.i
  %122 = load i32, ptr %121, align 4, !tbaa !29
  %123 = and i32 %122, %120
  store i32 %123, ptr %121, align 4, !tbaa !29
  %124 = or i32 %123, %.010.i
  %indvars.iv.next.i = add nuw nsw i64 %indvars.iv.i, 1
  %exitcond.not.i = icmp eq i64 %indvars.iv.next.i, %wide.trip.count.i
  br i1 %exitcond.not.i, label %_ZL14intersectMasksPjPKji.exit, label %.lr.ph.i, !llvm.loop !61

_ZL14intersectMasksPjPKji.exit:                   ; preds = %.lr.ph.i
  %.not = icmp eq i32 %124, 0
  br i1 %.not, label %_ZL14intersectMasksPjPKji.exit.thread, label %33

_ZL14intersectMasksPjPKji.exit.thread:            ; preds = %115, %_ZL14intersectMasksPjPKji.exit, %33, %27
  %125 = tail call fastcc noundef ptr @_ZL13selectForMaskPK18UConverterSelectorPjP10UErrorCode(ptr noundef %0, ptr noundef %20, ptr noundef nonnull %3)
  br label %126

126:                                              ; preds = %22, %_ZL14intersectMasksPjPKji.exit.thread, %4, %12
  %.0 = phi ptr [ null, %12 ], [ null, %4 ], [ null, %22 ], [ %125, %_ZL14intersectMasksPjPKji.exit.thread ]
  ret ptr %.0
}